target datalayout = "e-m:e-p270:32:32-p271:32:32-p272:64:64-i64:64-i128:128-f80:128-n8:16:32:64-S128"
target triple = "x86_64-pc-linux-gnu"

%struct.AVCodecContext = type { ptr, i32, i32, ptr, i32, i32, ptr, ptr, ptr, i64, i32, i32, ptr, i32, %struct.AVRational, %struct.AVRational, %struct.AVRational, i32, i32, i32, i32, i32, %struct.AVRational, i32, i32, i32, i32, i32, i32, i32, i32, i32, i32, i32, ptr, ptr, i32, float, float, float, float, float, float, float, float, float, i32, i32, i32, i32, i32, i32, i32, i32, i32, i32, i32, i32, ptr, ptr, ptr, i32, i32, i32, i32, i32, i32, i32, i32, i32, i32, %struct.AVChannelLayout, i32, i32, i32, i32, i32, i32, i32, i32, ptr, i32, i32, i32, float, float, i32, i32, i32, i32, i32, ptr, i64, i64, float, float, i32, i32, ptr, ptr, i32, i32, i32, i32, i32, ptr, ptr, ptr, ptr, i32, i32, [8 x i64], i32, i32, i32, i32, i32, i32, i32, ptr, ptr, i32, i32, i32, i32, i32, i32, i32, i32, i32, i32, ptr, ptr, i32, i32, ptr, ptr, ptr, ptr, i32, i32, i64, i32, i32, i64, ptr, i64, ptr, i32, ptr, i32 }
%struct.AVRational = type { i32, i32 }
%struct.AVChannelLayout = type { i32, i32, %union.anon.0, ptr }
%union.anon.0 = type { i64 }
%struct.ASVDecContext = type { %struct.ASVCommonContext, %struct.GetBitContext, %struct.BlockDSPContext, %struct.IDCTDSPContext, [64 x i8], [6 x [64 x i16]], [64 x i16], ptr, i32 }
%struct.ASVCommonContext = type { ptr, %struct.BswapDSPContext, i32, i32, i32, i32 }
%struct.BswapDSPContext = type { ptr, ptr }
%struct.GetBitContext = type { ptr, ptr, i32, i32, i32 }
%struct.BlockDSPContext = type { ptr, ptr, [2 x ptr] }
%struct.IDCTDSPContext = type { ptr, ptr, ptr, ptr, ptr, ptr, [64 x i8], i32, i32 }

@decode_init.init_static_once = internal global i32 0, align 4
@.str.4 = private unnamed_addr constant [23 x i8] c"No extradata provided\0A\00", align 1
@ff_asv_scantab = external constant [64 x i8], align 16
@.str.5 = private unnamed_addr constant [18 x i8] c"illegal qscale 0\0A\00", align 1
@ff_mpeg1_default_intra_matrix = external constant [0 x i16], align 2

; Function Attrs: cold nounwind optsize uwtable
define internal i32 @decode_init(ptr noundef %0) #0 {
  %2 = alloca ptr, align 8
  %3 = alloca ptr, align 8
  %4 = alloca i32, align 4
  %5 = alloca i32, align 4
  %6 = alloca i32, align 4
  %7 = alloca i32, align 4
  store ptr %0, ptr %2, align 8, !tbaa !4
  call void @llvm.lifetime.start.p0(i64 8, ptr %3) #8
  %8 = load ptr, ptr %2, align 8, !tbaa !4
  %9 = getelementptr inbounds nuw %struct.AVCodecContext, ptr %8, i32 0, i32 6
  %10 = load ptr, ptr %9, align 8, !tbaa !9
  store ptr %10, ptr %3, align 8, !tbaa !29
  call void @llvm.lifetime.start.p0(i64 4, ptr %4) #8
  %11 = load ptr, ptr %2, align 8, !tbaa !4
  %12 = getelementptr inbounds nuw %struct.AVCodecContext, ptr %11, i32 0, i32 4
  %13 = load i32, ptr %12, align 8, !tbaa !31
  %14 = icmp eq i32 %13, 31
  %15 = select i1 %14, i32 1, i32 2
  store i32 %15, ptr %4, align 4, !tbaa !32
  call void @llvm.lifetime.start.p0(i64 4, ptr %5) #8
  call void @llvm.lifetime.start.p0(i64 4, ptr %6) #8
  %16 = load ptr, ptr %2, align 8, !tbaa !4
  %17 = getelementptr inbounds nuw %struct.AVCodecContext, ptr %16, i32 0, i32 13
  %18 = load i32, ptr %17, align 8, !tbaa !33
  %19 = icmp slt i32 %18, 1
  br i1 %19, label %20, label %22

20:                                               ; preds = %1
  %21 = load ptr, ptr %2, align 8, !tbaa !4
  call void (ptr, i32, ptr, ...) @av_log(ptr noundef %21, i32 noundef 24, ptr noundef @.str.4)
  br label %22

22:                                               ; preds = %20, %1
  %23 = load ptr, ptr %2, align 8, !tbaa !4
  call void @ff_asv_common_init(ptr noundef %23)
  %24 = load ptr, ptr %3, align 8, !tbaa !29
  %25 = getelementptr inbounds nuw %struct.ASVDecContext, ptr %24, i32 0, i32 2
  call void @ff_blockdsp_init(ptr noundef %25)
  %26 = load ptr, ptr %3, align 8, !tbaa !29
  %27 = getelementptr inbounds nuw %struct.ASVDecContext, ptr %26, i32 0, i32 3
  %28 = load ptr, ptr %2, align 8, !tbaa !4
  call void @ff_idctdsp_init(ptr noundef %27, ptr noundef %28)
  %29 = load ptr, ptr %3, align 8, !tbaa !29
  %30 = getelementptr inbounds nuw %struct.ASVDecContext, ptr %29, i32 0, i32 4
  %31 = getelementptr inbounds [64 x i8], ptr %30, i64 0, i64 0
  %32 = load ptr, ptr %3, align 8, !tbaa !29
  %33 = getelementptr inbounds nuw %struct.ASVDecContext, ptr %32, i32 0, i32 3
  %34 = getelementptr inbounds nuw %struct.IDCTDSPContext, ptr %33, i32 0, i32 6
  %35 = getelementptr inbounds [64 x i8], ptr %34, i64 0, i64 0
  call void @ff_permute_scantable(ptr noundef %31, ptr noundef @ff_asv_scantab, ptr noundef %35)
  %36 = load ptr, ptr %2, align 8, !tbaa !4
  %37 = getelementptr inbounds nuw %struct.AVCodecContext, ptr %36, i32 0, i32 23
  store i32 0, ptr %37, align 8, !tbaa !34
  %38 = load ptr, ptr %2, align 8, !tbaa !4
  %39 = getelementptr inbounds nuw %struct.AVCodecContext, ptr %38, i32 0, i32 13
  %40 = load i32, ptr %39, align 8, !tbaa !33
  %41 = icmp slt i32 %40, 1
  br i1 %41, label %50, label %42

42:                                               ; preds = %22
  %43 = load ptr, ptr %2, align 8, !tbaa !4
  %44 = getelementptr inbounds nuw %struct.AVCodecContext, ptr %43, i32 0, i32 12
  %45 = load ptr, ptr %44, align 8, !tbaa !35
  %46 = getelementptr inbounds i8, ptr %45, i64 0
  %47 = load i8, ptr %46, align 1, !tbaa !36
  %48 = zext i8 %47 to i32
  store i32 %48, ptr %5, align 4, !tbaa !32
  %49 = icmp eq i32 %48, 0
  br i1 %49, label %50, label %59

50:                                               ; preds = %42, %22
  %51 = load ptr, ptr %2, align 8, !tbaa !4
  call void (ptr, i32, ptr, ...) @av_log(ptr noundef %51, i32 noundef 16, ptr noundef @.str.5)
  %52 = load ptr, ptr %2, align 8, !tbaa !4
  %53 = getelementptr inbounds nuw %struct.AVCodecContext, ptr %52, i32 0, i32 4
  %54 = load i32, ptr %53, align 8, !tbaa !31
  %55 = icmp eq i32 %54, 31
  br i1 %55, label %56, label %57

56:                                               ; preds = %50
  store i32 6, ptr %5, align 4, !tbaa !32
  br label %58

57:                                               ; preds = %50
  store i32 10, ptr %5, align 4, !tbaa !32
  br label %58

58:                                               ; preds = %57, %56
  br label %59

59:                                               ; preds = %58, %42
  store i32 0, ptr %6, align 4, !tbaa !32
  br label %60

60:                                               ; preds = %85, %59
  %61 = load i32, ptr %6, align 4, !tbaa !32
  %62 = icmp slt i32 %61, 64
  br i1 %62, label %63, label %88

63:                                               ; preds = %60
  call void @llvm.lifetime.start.p0(i64 4, ptr %7) #8
  %64 = load i32, ptr %6, align 4, !tbaa !32
  %65 = sext i32 %64 to i64
  %66 = getelementptr inbounds [64 x i8], ptr @ff_asv_scantab, i64 0, i64 %65
  %67 = load i8, ptr %66, align 1, !tbaa !36
  %68 = zext i8 %67 to i32
  store i32 %68, ptr %7, align 4, !tbaa !32
  %69 = load i32, ptr %4, align 4, !tbaa !32
  %70 = mul nsw i32 64, %69
  %71 = load i32, ptr %7, align 4, !tbaa !32
  %72 = sext i32 %71 to i64
  %73 = getelementptr inbounds [0 x i16], ptr @ff_mpeg1_default_intra_matrix, i64 0, i64 %72
  %74 = load i16, ptr %73, align 2, !tbaa !37
  %75 = zext i16 %74 to i32
  %76 = mul nsw i32 %70, %75
  %77 = load i32, ptr %5, align 4, !tbaa !32
  %78 = sdiv i32 %76, %77
  %79 = trunc i32 %78 to i16
  %80 = load ptr, ptr %3, align 8, !tbaa !29
  %81 = getelementptr inbounds nuw %struct.ASVDecContext, ptr %80, i32 0, i32 6
  %82 = load i32, ptr %6, align 4, !tbaa !32
  %83 = sext i32 %82 to i64
  %84 = getelementptr inbounds [64 x i16], ptr %81, i64 0, i64 %83
  store i16 %79, ptr %84, align 2, !tbaa !37
  call void @llvm.lifetime.end.p0(i64 4, ptr %7) #8
  br label %85

85:                                               ; preds = %63
  %86 = load i32, ptr %6, align 4, !tbaa !32
  %87 = add nsw i32 %86, 1
  store i32 %87, ptr %6, align 4, !tbaa !32
  br label %60, !llvm.loop !39

88:                                               ; preds = %60
  %89 = call i32 @pthread_once(ptr noundef @decode_init.init_static_once, ptr noundef @init_vlcs)
  call void @llvm.lifetime.end.p0(i64 4, ptr %6) #8
  call void @llvm.lifetime.end.p0(i64 4, ptr %5) #8
  call void @llvm.lifetime.end.p0(i64 4, ptr %4) #8
  call void @llvm.lifetime.end.p0(i64 8, ptr %3) #8
  ret i32 0
}