; Function Attrs: cold nounwind optsize uwtable
define internal noundef i32 @decode_init(ptr noundef %0) #0 {
  %2 = getelementptr inbounds nuw i8, ptr %0, i64 32
  %3 = load ptr, ptr %2, align 8, !tbaa !4
  %4 = getelementptr inbounds nuw i8, ptr %0, i64 24
  %5 = load i32, ptr %4, align 8, !tbaa !27
  %6 = icmp eq i32 %5, 31
  %7 = getelementptr inbounds nuw i8, ptr %0, i64 80
  %8 = load i32, ptr %7, align 8, !tbaa !28
  %9 = icmp slt i32 %8, 1
  br i1 %9, label %10, label %11

10:                                               ; preds = %1
  tail call void (ptr, i32, ptr, ...) @av_log(ptr noundef nonnull %0, i32 noundef 24, ptr noundef nonnull @.str.4) #5
  br label %11

11:                                               ; preds = %10, %1
  tail call void @ff_asv_common_init(ptr noundef nonnull %0) #5
  %12 = getelementptr inbounds nuw i8, ptr %3, i64 72
  tail call void @ff_blockdsp_init(ptr noundef nonnull %12) #5
  %13 = getelementptr inbounds nuw i8, ptr %3, i64 104
  tail call void @ff_idctdsp_init(ptr noundef nonnull %13, ptr noundef nonnull %0) #5
  %14 = getelementptr inbounds nuw i8, ptr %3, i64 224
  %15 = getelementptr inbounds nuw i8, ptr %3, i64 152
  tail call void @ff_permute_scantable(ptr noundef nonnull %14, ptr noundef nonnull @ff_asv_scantab, ptr noundef nonnull %15) #5
  %16 = getelementptr inbounds nuw i8, ptr %0, i64 136
  store i32 0, ptr %16, align 8, !tbaa !29
  %17 = load i32, ptr %7, align 8, !tbaa !28
  %18 = icmp slt i32 %17, 1
  br i1 %18, label %25, label %19

19:                                               ; preds = %11
  %20 = getelementptr inbounds nuw i8, ptr %0, i64 72
  %21 = load ptr, ptr %20, align 8, !tbaa !30
  %22 = load i8, ptr %21, align 1, !tbaa !31
  %23 = zext i8 %22 to i32
  %24 = icmp eq i8 %22, 0
  br i1 %24, label %25, label %28

25:                                               ; preds = %19, %11
  tail call void (ptr, i32, ptr, ...) @av_log(ptr noundef nonnull %0, i32 noundef 16, ptr noundef nonnull @.str.5) #5
  %26 = load i32, ptr %4, align 8, !tbaa !27
  %27 = icmp eq i32 %26, 31
  %. = select i1 %27, i32 6, i32 10
  br label %28

28:                                               ; preds = %25, %19
  %.0 = phi i32 [ %23, %19 ], [ %., %25 ]
  %29 = select i1 %6, i32 6, i32 7
  %30 = getelementptr inbounds nuw i8, ptr %3, i64 1056
  br label %31

31:                                               ; preds = %28, %31
  %indvars.iv = phi i64 [ 0, %28 ], [ %indvars.iv.next, %31 ]
  %32 = getelementptr inbounds nuw [64 x i8], ptr @ff_asv_scantab, i64 0, i64 %indvars.iv
  %33 = load i8, ptr %32, align 1, !tbaa !31
  %34 = zext i8 %33 to i64
  %35 = getelementptr inbounds nuw [0 x i16], ptr @ff_mpeg1_default_intra_matrix, i64 0, i64 %34
  %36 = load i16, ptr %35, align 2, !tbaa !32
  %37 = zext i16 %36 to i32
  %38 = shl nuw nsw i32 %37, %29
  %39 = udiv i32 %38, %.0
  %40 = trunc i32 %39 to i16
  %41 = getelementptr inbounds nuw [64 x i16], ptr %30, i64 0, i64 %indvars.iv
  store i16 %40, ptr %41, align 2, !tbaa !32
  %indvars.iv.next = add nuw nsw i64 %indvars.iv, 1
  %exitcond.not = icmp eq i64 %indvars.iv.next, 64
  br i1 %exitcond.not, label %42, label %31, !llvm.loop !34

42:                                               ; preds = %31
  %43 = tail call i32 @pthread_once(ptr noundef nonnull @decode_init.init_static_once, ptr noundef nonnull @init_vlcs) #5
  ret i32 0
}